; Function Attrs: nofree norecurse nosync nounwind memory(argmem: readwrite) uwtable
define internal void @dnxhd_8bit_get_pixels_8x4_sym(ptr noalias noundef captures(none) %0, ptr noundef readonly captures(none) %1, i64 noundef %2) #7 {
  br label %4

4:                                                ; preds = %3, %4
  %.032 = phi i32 [ 0, %3 ], [ %37, %4 ]
  %.02831 = phi ptr [ %0, %3 ], [ %36, %4 ]
  %.02930 = phi ptr [ %1, %3 ], [ %35, %4 ]
  %5 = load i8, ptr %.02930, align 1, !tbaa !118
  %6 = zext i8 %5 to i16
  store i16 %6, ptr %.02831, align 2, !tbaa !156
  %7 = getelementptr inbounds nuw i8, ptr %.02930, i64 1
  %8 = load i8, ptr %7, align 1, !tbaa !118
  %9 = zext i8 %8 to i16
  %10 = getelementptr inbounds nuw i8, ptr %.02831, i64 2
  store i16 %9, ptr %10, align 2, !tbaa !156
  %11 = getelementptr inbounds nuw i8, ptr %.02930, i64 2
  %12 = load i8, ptr %11, align 1, !tbaa !118
  %13 = zext i8 %12 to i16
  %14 = getelementptr inbounds nuw i8, ptr %.02831, i64 4
  store i16 %13, ptr %14, align 2, !tbaa !156
  %15 = getelementptr inbounds nuw i8, ptr %.02930, i64 3
  %16 = load i8, ptr %15, align 1, !tbaa !118
  %17 = zext i8 %16 to i16
  %18 = getelementptr inbounds nuw i8, ptr %.02831, i64 6
  store i16 %17, ptr %18, align 2, !tbaa !156
  %19 = getelementptr inbounds nuw i8, ptr %.02930, i64 4
  %20 = load i8, ptr %19, align 1, !tbaa !118
  %21 = zext i8 %20 to i16
  %22 = getelementptr inbounds nuw i8, ptr %.02831, i64 8
  store i16 %21, ptr %22, align 2, !tbaa !156
  %23 = getelementptr inbounds nuw i8, ptr %.02930, i64 5
  %24 = load i8, ptr %23, align 1, !tbaa !118
  %25 = zext i8 %24 to i16
  %26 = getelementptr inbounds nuw i8, ptr %.02831, i64 10
  store i16 %25, ptr %26, align 2, !tbaa !156
  %27 = getelementptr inbounds nuw i8, ptr %.02930, i64 6
  %28 = load i8, ptr %27, align 1, !tbaa !118
  %29 = zext i8 %28 to i16
  %30 = getelementptr inbounds nuw i8, ptr %.02831, i64 12
  store i16 %29, ptr %30, align 2, !tbaa !156
  %31 = getelementptr inbounds nuw i8, ptr %.02930, i64 7
  %32 = load i8, ptr %31, align 1, !tbaa !118
  %33 = zext i8 %32 to i16
  %34 = getelementptr inbounds nuw i8, ptr %.02831, i64 14
  store i16 %33, ptr %34, align 2, !tbaa !156
  %35 = getelementptr inbounds i8, ptr %.02930, i64 %2
  %36 = getelementptr inbounds nuw i8, ptr %.02831, i64 16
  %37 = add nuw nsw i32 %.032, 1
  %exitcond.not = icmp eq i32 %37, 4
  br i1 %exitcond.not, label %38, label %4, !llvm.loop !164

38:                                               ; preds = %4
  tail call void @llvm.memcpy.p0.p0.i64(ptr noundef nonnull align 2 dereferenceable(16) %36, ptr noundef nonnull align 2 dereferenceable(16) %.02831, i64 16, i1 false)
  %39 = getelementptr inbounds nuw i8, ptr %.02831, i64 32
  %40 = getelementptr inbounds i8, ptr %.02831, i64 -16
  tail call void @llvm.memcpy.p0.p0.i64(ptr noundef nonnull align 2 dereferenceable(16) %39, ptr noundef nonnull align 2 dereferenceable(16) %40, i64 16, i1 false)
  %41 = getelementptr inbounds nuw i8, ptr %.02831, i64 48
  %42 = getelementptr inbounds i8, ptr %.02831, i64 -32
  tail call void @llvm.memcpy.p0.p0.i64(ptr noundef nonnull align 2 dereferenceable(16) %41, ptr noundef nonnull align 2 dereferenceable(16) %42, i64 16, i1 false)
  %43 = getelementptr inbounds nuw i8, ptr %.02831, i64 64
  %44 = getelementptr inbounds i8, ptr %.02831, i64 -48
  tail call void @llvm.memcpy.p0.p0.i64(ptr noundef nonnull align 2 dereferenceable(16) %43, ptr noundef nonnull align 2 dereferenceable(16) %44, i64 16, i1 false)
  ret void
}